target datalayout = "e-m:e-p270:32:32-p271:32:32-p272:64:64-i64:64-i128:128-f80:128-n8:16:32:64-S128"
target triple = "x86_64-pc-linux-gnu"

%struct.lean_object = type { i32, i32 }
%struct.lean_ctor_object = type { %struct.lean_object, [0 x ptr] }

@l_Lean_Linter_MissingDocs_lintDeclHead___closed__2 = internal global ptr null, align 8
@l_Lean_Linter_MissingDocs_lintDeclHead___closed__4 = internal global ptr null, align 8
@l_Lean_Linter_MissingDocs_lintDeclHead___closed__6 = internal global ptr null, align 8
@l_Lean_Linter_MissingDocs_lintDeclHead___closed__8 = internal global ptr null, align 8
@l_Lean_Linter_MissingDocs_lintDeclHead___closed__10 = internal global ptr null, align 8
@l_Lean_Linter_MissingDocs_lintDeclHead___closed__12 = internal global ptr null, align 8
@l_Lean_Linter_MissingDocs_lintDeclHead___closed__14 = internal global ptr null, align 8
@l_Lean_Linter_MissingDocs_lintDeclHead___closed__15 = internal global ptr null, align 8
@l_Lean_Linter_MissingDocs_lintDeclHead___closed__16 = internal global ptr null, align 8
@l_Lean_Linter_MissingDocs_lintDeclHead___closed__17 = internal global ptr null, align 8
@l_Lean_Linter_MissingDocs_lintDeclHead___closed__18 = internal global ptr null, align 8
@l_Lean_Linter_MissingDocs_lintDeclHead___closed__19 = internal global ptr null, align 8
@l_Lean_Linter_MissingDocs_lintDeclHead___closed__20 = internal global ptr null, align 8

; Function Attrs: inlinehint nounwind uwtable
define internal ptr @lean_to_ctor(ptr noundef %0) #0 {
  %2 = alloca ptr, align 8
  store ptr %0, ptr %2, align 8, !tbaa !8
  %3 = load ptr, ptr %2, align 8, !tbaa !8
  ret ptr %3
}

; Function Attrs: inlinehint nounwind uwtable
define internal ptr @lean_ctor_obj_cptr(ptr noundef %0) #0 {
  %2 = alloca ptr, align 8
  store ptr %0, ptr %2, align 8, !tbaa !8
  %3 = load ptr, ptr %2, align 8, !tbaa !8
  %4 = call ptr @lean_to_ctor(ptr noundef %3)
  %5 = getelementptr inbounds nuw %struct.lean_ctor_object, ptr %4, i32 0, i32 1
  %6 = getelementptr inbounds [0 x ptr], ptr %5, i64 0, i64 0
  ret ptr %6
}

; Function Attrs: alwaysinline nounwind uwtable
define internal void @lean_dec_ref(ptr noundef %0) #1 {
  %2 = alloca ptr, align 8
  store ptr %0, ptr %2, align 8, !tbaa !8
  %3 = load ptr, ptr %2, align 8, !tbaa !8
  %4 = getelementptr inbounds nuw %struct.lean_object, ptr %3, i32 0, i32 0
  %5 = load i32, ptr %4, align 4, !tbaa !15
  %6 = icmp sgt i32 %5, 1
  %7 = zext i1 %6 to i32
  %8 = sext i32 %7 to i64
  %9 = call i64 @llvm.expect.i64(i64 %8, i64 1)
  %10 = icmp ne i64 %9, 0
  br i1 %10, label %11, label %16

11:                                               ; preds = %1
  %12 = load ptr, ptr %2, align 8, !tbaa !8
  %13 = getelementptr inbounds nuw %struct.lean_object, ptr %12, i32 0, i32 0
  %14 = load i32, ptr %13, align 4, !tbaa !15
  %15 = add i32 %14, -1
  store i32 %15, ptr %13, align 4, !tbaa !15
  br label %24

16:                                               ; preds = %1
  %17 = load ptr, ptr %2, align 8, !tbaa !8
  %18 = getelementptr inbounds nuw %struct.lean_object, ptr %17, i32 0, i32 0
  %19 = load i32, ptr %18, align 4, !tbaa !15
  %20 = icmp ne i32 %19, 0
  br i1 %20, label %21, label %23

21:                                               ; preds = %16
  %22 = load ptr, ptr %2, align 8, !tbaa !8
  call void @lean_dec_ref_cold(ptr noundef %22)
  br label %23

23:                                               ; preds = %21, %16
  br label %24

24:                                               ; preds = %23, %11
  ret void
}

; Function Attrs: alwaysinline nounwind uwtable
define internal zeroext i1 @lean_is_scalar(ptr noundef %0) #1 {
  %2 = alloca ptr, align 8
  store ptr %0, ptr %2, align 8, !tbaa !8
  %3 = load ptr, ptr %2, align 8, !tbaa !8
  %4 = ptrtoint ptr %3 to i64
  %5 = and i64 %4, 1
  %6 = icmp eq i64 %5, 1
  ret i1 %6
}

; Function Attrs: inlinehint nounwind uwtable
define internal void @lean_ctor_set(ptr noundef %0, i32 noundef %1, ptr noundef %2) #0 {
  %4 = alloca ptr, align 8
  %5 = alloca i32, align 4
  %6 = alloca ptr, align 8
  store ptr %0, ptr %4, align 8, !tbaa !8
  store i32 %1, ptr %5, align 4, !tbaa !13
  store ptr %2, ptr %6, align 8, !tbaa !8
  %7 = load ptr, ptr %6, align 8, !tbaa !8
  %8 = load ptr, ptr %4, align 8, !tbaa !8
  %9 = call ptr @lean_ctor_obj_cptr(ptr noundef %8)
  %10 = load i32, ptr %5, align 4, !tbaa !13
  %11 = zext i32 %10 to i64
  %12 = getelementptr inbounds nuw ptr, ptr %9, i64 %11
  store ptr %7, ptr %12, align 8, !tbaa !8
  ret void
}

; Function Attrs: inlinehint nounwind uwtable
define internal ptr @lean_box(i64 noundef %0) #0 {
  %2 = alloca i64, align 8
  store i64 %0, ptr %2, align 8, !tbaa !4
  %3 = load i64, ptr %2, align 8, !tbaa !4
  %4 = shl i64 %3, 1
  %5 = or i64 %4, 1
  %6 = inttoptr i64 %5 to ptr
  ret ptr %6
}

; Function Attrs: alwaysinline nounwind uwtable
define internal void @lean_dec(ptr noundef %0) #1 {
  %2 = alloca ptr, align 8
  store ptr %0, ptr %2, align 8, !tbaa !8
  %3 = load ptr, ptr %2, align 8, !tbaa !8
  %4 = call zeroext i1 @lean_is_scalar(ptr noundef %3)
  br i1 %4, label %7, label %5

5:                                                ; preds = %1
  %6 = load ptr, ptr %2, align 8, !tbaa !8
  call void @lean_dec_ref(ptr noundef %6)
  br label %7

7:                                                ; preds = %5, %1
  ret void
}

; Function Attrs: nounwind uwtable
define ptr @l_Lean_Linter_MissingDocs_lintDeclHead(ptr noundef %0, ptr noundef %1, ptr noundef %2, ptr noundef %3, ptr noundef %4) #2 {
  %6 = alloca ptr, align 8
  %7 = alloca ptr, align 8
  %8 = alloca ptr, align 8
  %9 = alloca ptr, align 8
  %10 = alloca ptr, align 8
  %11 = alloca ptr, align 8
  %12 = alloca ptr, align 8
  %13 = alloca i8, align 1
  %14 = alloca ptr, align 8
  %15 = alloca i8, align 1
  %16 = alloca ptr, align 8
  %17 = alloca i8, align 1
  %18 = alloca ptr, align 8
  %19 = alloca i8, align 1
  %20 = alloca ptr, align 8
  %21 = alloca i8, align 1
  %22 = alloca ptr, align 8
  %23 = alloca i8, align 1
  %24 = alloca ptr, align 8
  %25 = alloca i8, align 1
  %26 = alloca ptr, align 8
  %27 = alloca ptr, align 8
  %28 = alloca i32, align 4
  %29 = alloca ptr, align 8
  %30 = alloca ptr, align 8
  %31 = alloca ptr, align 8
  %32 = alloca ptr, align 8
  %33 = alloca ptr, align 8
  %34 = alloca ptr, align 8
  %35 = alloca ptr, align 8
  %36 = alloca ptr, align 8
  %37 = alloca ptr, align 8
  %38 = alloca ptr, align 8
  %39 = alloca ptr, align 8
  %40 = alloca ptr, align 8
  %41 = alloca ptr, align 8
  %42 = alloca ptr, align 8
  store ptr %0, ptr %7, align 8, !tbaa !8
  store ptr %1, ptr %8, align 8, !tbaa !8
  store ptr %2, ptr %9, align 8, !tbaa !8
  store ptr %3, ptr %10, align 8, !tbaa !8
  store ptr %4, ptr %11, align 8, !tbaa !8
  br label %43

43:                                               ; preds = %5
  call void @llvm.lifetime.start.p0(i64 8, ptr %12) #7
  call void @llvm.lifetime.start.p0(i64 1, ptr %13) #7
  %44 = load ptr, ptr @l_Lean_Linter_MissingDocs_lintDeclHead___closed__2, align 8, !tbaa !8
  store ptr %44, ptr %12, align 8, !tbaa !8
  %45 = load ptr, ptr %7, align 8, !tbaa !8
  %46 = load ptr, ptr %12, align 8, !tbaa !8
  %47 = call zeroext i8 @lean_name_eq(ptr noundef %45, ptr noundef %46)
  store i8 %47, ptr %13, align 1, !tbaa !12
  %48 = load i8, ptr %13, align 1, !tbaa !12
  %49 = zext i8 %48 to i32
  %50 = icmp eq i32 %49, 0
  br i1 %50, label %51, label %168

51:                                               ; preds = %43
  call void @llvm.lifetime.start.p0(i64 8, ptr %14) #7
  call void @llvm.lifetime.start.p0(i64 1, ptr %15) #7
  %52 = load ptr, ptr @l_Lean_Linter_MissingDocs_lintDeclHead___closed__4, align 8, !tbaa !8
  store ptr %52, ptr %14, align 8, !tbaa !8
  %53 = load ptr, ptr %7, align 8, !tbaa !8
  %54 = load ptr, ptr %14, align 8, !tbaa !8
  %55 = call zeroext i8 @lean_name_eq(ptr noundef %53, ptr noundef %54)
  store i8 %55, ptr %15, align 1, !tbaa !12
  %56 = load i8, ptr %15, align 1, !tbaa !12
  %57 = zext i8 %56 to i32
  %58 = icmp eq i32 %57, 0
  br i1 %58, label %59, label %158

59:                                               ; preds = %51
  call void @llvm.lifetime.start.p0(i64 8, ptr %16) #7
  call void @llvm.lifetime.start.p0(i64 1, ptr %17) #7
  %60 = load ptr, ptr @l_Lean_Linter_MissingDocs_lintDeclHead___closed__6, align 8, !tbaa !8
  store ptr %60, ptr %16, align 8, !tbaa !8
  %61 = load ptr, ptr %7, align 8, !tbaa !8
  %62 = load ptr, ptr %16, align 8, !tbaa !8
  %63 = call zeroext i8 @lean_name_eq(ptr noundef %61, ptr noundef %62)
  store i8 %63, ptr %17, align 1, !tbaa !12
  %64 = load i8, ptr %17, align 1, !tbaa !12
  %65 = zext i8 %64 to i32
  %66 = icmp eq i32 %65, 0
  br i1 %66, label %67, label %148

67:                                               ; preds = %59
  call void @llvm.lifetime.start.p0(i64 8, ptr %18) #7
  call void @llvm.lifetime.start.p0(i64 1, ptr %19) #7
  %68 = load ptr, ptr @l_Lean_Linter_MissingDocs_lintDeclHead___closed__8, align 8, !tbaa !8
  store ptr %68, ptr %18, align 8, !tbaa !8
  %69 = load ptr, ptr %7, align 8, !tbaa !8
  %70 = load ptr, ptr %18, align 8, !tbaa !8
  %71 = call zeroext i8 @lean_name_eq(ptr noundef %69, ptr noundef %70)
  store i8 %71, ptr %19, align 1, !tbaa !12
  %72 = load i8, ptr %19, align 1, !tbaa !12
  %73 = zext i8 %72 to i32
  %74 = icmp eq i32 %73, 0
  br i1 %74, label %75, label %138

75:                                               ; preds = %67
  call void @llvm.lifetime.start.p0(i64 8, ptr %20) #7
  call void @llvm.lifetime.start.p0(i64 1, ptr %21) #7
  %76 = load ptr, ptr @l_Lean_Linter_MissingDocs_lintDeclHead___closed__10, align 8, !tbaa !8
  store ptr %76, ptr %20, align 8, !tbaa !8
  %77 = load ptr, ptr %7, align 8, !tbaa !8
  %78 = load ptr, ptr %20, align 8, !tbaa !8
  %79 = call zeroext i8 @lean_name_eq(ptr noundef %77, ptr noundef %78)
  store i8 %79, ptr %21, align 1, !tbaa !12
  %80 = load i8, ptr %21, align 1, !tbaa !12
  %81 = zext i8 %80 to i32
  %82 = icmp eq i32 %81, 0
  br i1 %82, label %83, label %128

83:                                               ; preds = %75
  call void @llvm.lifetime.start.p0(i64 8, ptr %22) #7
  call void @llvm.lifetime.start.p0(i64 1, ptr %23) #7
  %84 = load ptr, ptr @l_Lean_Linter_MissingDocs_lintDeclHead___closed__12, align 8, !tbaa !8
  store ptr %84, ptr %22, align 8, !tbaa !8
  %85 = load ptr, ptr %7, align 8, !tbaa !8
  %86 = load ptr, ptr %22, align 8, !tbaa !8
  %87 = call zeroext i8 @lean_name_eq(ptr noundef %85, ptr noundef %86)
  store i8 %87, ptr %23, align 1, !tbaa !12
  %88 = load i8, ptr %23, align 1, !tbaa !12
  %89 = zext i8 %88 to i32
  %90 = icmp eq i32 %89, 0
  br i1 %90, label %91, label %118

91:                                               ; preds = %83
  call void @llvm.lifetime.start.p0(i64 8, ptr %24) #7
  call void @llvm.lifetime.start.p0(i64 1, ptr %25) #7
  %92 = load ptr, ptr @l_Lean_Linter_MissingDocs_lintDeclHead___closed__14, align 8, !tbaa !8
  store ptr %92, ptr %24, align 8, !tbaa !8
  %93 = load ptr, ptr %7, align 8, !tbaa !8
  %94 = load ptr, ptr %24, align 8, !tbaa !8
  %95 = call zeroext i8 @lean_name_eq(ptr noundef %93, ptr noundef %94)
  store i8 %95, ptr %25, align 1, !tbaa !12
  %96 = load i8, ptr %25, align 1, !tbaa !12
  %97 = zext i8 %96 to i32
  %98 = icmp eq i32 %97, 0
  br i1 %98, label %99, label %108

99:                                               ; preds = %91
  call void @llvm.lifetime.start.p0(i64 8, ptr %26) #7
  call void @llvm.lifetime.start.p0(i64 8, ptr %27) #7
  %100 = load ptr, ptr %9, align 8, !tbaa !8
  call void @lean_dec(ptr noundef %100)
  %101 = call ptr @lean_box(i64 noundef 0)
  store ptr %101, ptr %26, align 8, !tbaa !8
  %102 = call ptr @lean_alloc_ctor(i32 noundef 0, i32 noundef 2, i32 noundef 0)
  store ptr %102, ptr %27, align 8, !tbaa !8
  %103 = load ptr, ptr %27, align 8, !tbaa !8
  %104 = load ptr, ptr %26, align 8, !tbaa !8
  call void @lean_ctor_set(ptr noundef %103, i32 noundef 0, ptr noundef %104)
  %105 = load ptr, ptr %27, align 8, !tbaa !8
  %106 = load ptr, ptr %11, align 8, !tbaa !8
  call void @lean_ctor_set(ptr noundef %105, i32 noundef 1, ptr noundef %106)
  %107 = load ptr, ptr %27, align 8, !tbaa !8
  store ptr %107, ptr %6, align 8
  store i32 1, ptr %28, align 4
  call void @llvm.lifetime.end.p0(i64 8, ptr %27) #7
  call void @llvm.lifetime.end.p0(i64 8, ptr %26) #7
  br label %117

108:                                              ; preds = %91
  call void @llvm.lifetime.start.p0(i64 8, ptr %29) #7
  call void @llvm.lifetime.start.p0(i64 8, ptr %30) #7
  %109 = load ptr, ptr @l_Lean_Linter_MissingDocs_lintDeclHead___closed__15, align 8, !tbaa !8
  store ptr %109, ptr %29, align 8, !tbaa !8
  %110 = load ptr, ptr %8, align 8, !tbaa !8
  %111 = load ptr, ptr %29, align 8, !tbaa !8
  %112 = load ptr, ptr %9, align 8, !tbaa !8
  %113 = load ptr, ptr %10, align 8, !tbaa !8
  %114 = load ptr, ptr %11, align 8, !tbaa !8
  %115 = call ptr @l_Lean_Linter_MissingDocs_lintNamed(ptr noundef %110, ptr noundef %111, ptr noundef %112, ptr noundef %113, ptr noundef %114)
  store ptr %115, ptr %30, align 8, !tbaa !8
  %116 = load ptr, ptr %30, align 8, !tbaa !8
  store ptr %116, ptr %6, align 8
  store i32 1, ptr %28, align 4
  call void @llvm.lifetime.end.p0(i64 8, ptr %30) #7
  call void @llvm.lifetime.end.p0(i64 8, ptr %29) #7
  br label %117

117:                                              ; preds = %108, %99
  call void @llvm.lifetime.end.p0(i64 1, ptr %25) #7
  call void @llvm.lifetime.end.p0(i64 8, ptr %24) #7
  br label %127

118:                                              ; preds = %83
  call void @llvm.lifetime.start.p0(i64 8, ptr %31) #7
  call void @llvm.lifetime.start.p0(i64 8, ptr %32) #7
  %119 = load ptr, ptr @l_Lean_Linter_MissingDocs_lintDeclHead___closed__16, align 8, !tbaa !8
  store ptr %119, ptr %31, align 8, !tbaa !8
  %120 = load ptr, ptr %8, align 8, !tbaa !8
  %121 = load ptr, ptr %31, align 8, !tbaa !8
  %122 = load ptr, ptr %9, align 8, !tbaa !8
  %123 = load ptr, ptr %10, align 8, !tbaa !8
  %124 = load ptr, ptr %11, align 8, !tbaa !8
  %125 = call ptr @l_Lean_Linter_MissingDocs_lintNamed(ptr noundef %120, ptr noundef %121, ptr noundef %122, ptr noundef %123, ptr noundef %124)
  store ptr %125, ptr %32, align 8, !tbaa !8
  %126 = load ptr, ptr %32, align 8, !tbaa !8
  store ptr %126, ptr %6, align 8
  store i32 1, ptr %28, align 4
  call void @llvm.lifetime.end.p0(i64 8, ptr %32) #7
  call void @llvm.lifetime.end.p0(i64 8, ptr %31) #7
  br label %127

127:                                              ; preds = %118, %117
  call void @llvm.lifetime.end.p0(i64 1, ptr %23) #7
  call void @llvm.lifetime.end.p0(i64 8, ptr %22) #7
  br label %137

128:                                              ; preds = %75
  call void @llvm.lifetime.start.p0(i64 8, ptr %33) #7
  call void @llvm.lifetime.start.p0(i64 8, ptr %34) #7
  %129 = load ptr, ptr @l_Lean_Linter_MissingDocs_lintDeclHead___closed__16, align 8, !tbaa !8
  store ptr %129, ptr %33, align 8, !tbaa !8
  %130 = load ptr, ptr %8, align 8, !tbaa !8
  %131 = load ptr, ptr %33, align 8, !tbaa !8
  %132 = load ptr, ptr %9, align 8, !tbaa !8
  %133 = load ptr, ptr %10, align 8, !tbaa !8
  %134 = load ptr, ptr %11, align 8, !tbaa !8
  %135 = call ptr @l_Lean_Linter_MissingDocs_lintNamed(ptr noundef %130, ptr noundef %131, ptr noundef %132, ptr noundef %133, ptr noundef %134)
  store ptr %135, ptr %34, align 8, !tbaa !8
  %136 = load ptr, ptr %34, align 8, !tbaa !8
  store ptr %136, ptr %6, align 8
  store i32 1, ptr %28, align 4
  call void @llvm.lifetime.end.p0(i64 8, ptr %34) #7
  call void @llvm.lifetime.end.p0(i64 8, ptr %33) #7
  br label %137

137:                                              ; preds = %128, %127
  call void @llvm.lifetime.end.p0(i64 1, ptr %21) #7
  call void @llvm.lifetime.end.p0(i64 8, ptr %20) #7
  br label %147

138:                                              ; preds = %67
  call void @llvm.lifetime.start.p0(i64 8, ptr %35) #7
  call void @llvm.lifetime.start.p0(i64 8, ptr %36) #7
  %139 = load ptr, ptr @l_Lean_Linter_MissingDocs_lintDeclHead___closed__17, align 8, !tbaa !8
  store ptr %139, ptr %35, align 8, !tbaa !8
  %140 = load ptr, ptr %8, align 8, !tbaa !8
  %141 = load ptr, ptr %35, align 8, !tbaa !8
  %142 = load ptr, ptr %9, align 8, !tbaa !8
  %143 = load ptr, ptr %10, align 8, !tbaa !8
  %144 = load ptr, ptr %11, align 8, !tbaa !8
  %145 = call ptr @l_Lean_Linter_MissingDocs_lintNamed(ptr noundef %140, ptr noundef %141, ptr noundef %142, ptr noundef %143, ptr noundef %144)
  store ptr %145, ptr %36, align 8, !tbaa !8
  %146 = load ptr, ptr %36, align 8, !tbaa !8
  store ptr %146, ptr %6, align 8
  store i32 1, ptr %28, align 4
  call void @llvm.lifetime.end.p0(i64 8, ptr %36) #7
  call void @llvm.lifetime.end.p0(i64 8, ptr %35) #7
  br label %147

147:                                              ; preds = %138, %137
  call void @llvm.lifetime.end.p0(i64 1, ptr %19) #7
  call void @llvm.lifetime.end.p0(i64 8, ptr %18) #7
  br label %157

148:                                              ; preds = %59
  call void @llvm.lifetime.start.p0(i64 8, ptr %37) #7
  call void @llvm.lifetime.start.p0(i64 8, ptr %38) #7
  %149 = load ptr, ptr @l_Lean_Linter_MissingDocs_lintDeclHead___closed__18, align 8, !tbaa !8
  store ptr %149, ptr %37, align 8, !tbaa !8
  %150 = load ptr, ptr %8, align 8, !tbaa !8
  %151 = load ptr, ptr %37, align 8, !tbaa !8
  %152 = load ptr, ptr %9, align 8, !tbaa !8
  %153 = load ptr, ptr %10, align 8, !tbaa !8
  %154 = load ptr, ptr %11, align 8, !tbaa !8
  %155 = call ptr @l_Lean_Linter_MissingDocs_lintNamed(ptr noundef %150, ptr noundef %151, ptr noundef %152, ptr noundef %153, ptr noundef %154)
  store ptr %155, ptr %38, align 8, !tbaa !8
  %156 = load ptr, ptr %38, align 8, !tbaa !8
  store ptr %156, ptr %6, align 8
  store i32 1, ptr %28, align 4
  call void @llvm.lifetime.end.p0(i64 8, ptr %38) #7
  call void @llvm.lifetime.end.p0(i64 8, ptr %37) #7
  br label %157

157:                                              ; preds = %148, %147
  call void @llvm.lifetime.end.p0(i64 1, ptr %17) #7
  call void @llvm.lifetime.end.p0(i64 8, ptr %16) #7
  br label %167

158:                                              ; preds = %51
  call void @llvm.lifetime.start.p0(i64 8, ptr %39) #7
  call void @llvm.lifetime.start.p0(i64 8, ptr %40) #7
  %159 = load ptr, ptr @l_Lean_Linter_MissingDocs_lintDeclHead___closed__19, align 8, !tbaa !8
  store ptr %159, ptr %39, align 8, !tbaa !8
  %160 = load ptr, ptr %8, align 8, !tbaa !8
  %161 = load ptr, ptr %39, align 8, !tbaa !8
  %162 = load ptr, ptr %9, align 8, !tbaa !8
  %163 = load ptr, ptr %10, align 8, !tbaa !8
  %164 = load ptr, ptr %11, align 8, !tbaa !8
  %165 = call ptr @l_Lean_Linter_MissingDocs_lintNamed(ptr noundef %160, ptr noundef %161, ptr noundef %162, ptr noundef %163, ptr noundef %164)
  store ptr %165, ptr %40, align 8, !tbaa !8
  %166 = load ptr, ptr %40, align 8, !tbaa !8
  store ptr %166, ptr %6, align 8
  store i32 1, ptr %28, align 4
  call void @llvm.lifetime.end.p0(i64 8, ptr %40) #7
  call void @llvm.lifetime.end.p0(i64 8, ptr %39) #7
  br label %167

167:                                              ; preds = %158, %157
  call void @llvm.lifetime.end.p0(i64 1, ptr %15) #7
  call void @llvm.lifetime.end.p0(i64 8, ptr %14) #7
  br label %177

168:                                              ; preds = %43
  call void @llvm.lifetime.start.p0(i64 8, ptr %41) #7
  call void @llvm.lifetime.start.p0(i64 8, ptr %42) #7
  %169 = load ptr, ptr @l_Lean_Linter_MissingDocs_lintDeclHead___closed__20, align 8, !tbaa !8
  store ptr %169, ptr %41, align 8, !tbaa !8
  %170 = load ptr, ptr %8, align 8, !tbaa !8
  %171 = load ptr, ptr %41, align 8, !tbaa !8
  %172 = load ptr, ptr %9, align 8, !tbaa !8
  %173 = load ptr, ptr %10, align 8, !tbaa !8
  %174 = load ptr, ptr %11, align 8, !tbaa !8
  %175 = call ptr @l_Lean_Linter_MissingDocs_lintNamed(ptr noundef %170, ptr noundef %171, ptr noundef %172, ptr noundef %173, ptr noundef %174)
  store ptr %175, ptr %42, align 8, !tbaa !8
  %176 = load ptr, ptr %42, align 8, !tbaa !8
  store ptr %176, ptr %6, align 8
  store i32 1, ptr %28, align 4
  call void @llvm.lifetime.end.p0(i64 8, ptr %42) #7
  call void @llvm.lifetime.end.p0(i64 8, ptr %41) #7
  br label %177

177:                                              ; preds = %168, %167
  call void @llvm.lifetime.end.p0(i64 1, ptr %13) #7
  call void @llvm.lifetime.end.p0(i64 8, ptr %12) #7
  %178 = load ptr, ptr %6, align 8
  ret ptr %178
}