; Function Attrs: nounwind uwtable
define ptr @l_Lean_Linter_MissingDocs_lintDeclHead(ptr noundef %0, ptr noundef %1, ptr noundef %2, ptr noundef %3, ptr noundef %4) local_unnamed_addr #0 {
  %6 = load ptr, ptr @l_Lean_Linter_MissingDocs_lintDeclHead___closed__2, align 8, !tbaa !4
  %7 = tail call zeroext i8 @lean_name_eq(ptr noundef %0, ptr noundef %6) #5
  %8 = icmp eq i8 %7, 0
  br i1 %8, label %9, label %64

9:                                                ; preds = %5
  %10 = load ptr, ptr @l_Lean_Linter_MissingDocs_lintDeclHead___closed__4, align 8, !tbaa !4
  %11 = tail call zeroext i8 @lean_name_eq(ptr noundef %0, ptr noundef %10) #5
  %12 = icmp eq i8 %11, 0
  br i1 %12, label %13, label %61

13:                                               ; preds = %9
  %14 = load ptr, ptr @l_Lean_Linter_MissingDocs_lintDeclHead___closed__6, align 8, !tbaa !4
  %15 = tail call zeroext i8 @lean_name_eq(ptr noundef %0, ptr noundef %14) #5
  %16 = icmp eq i8 %15, 0
  br i1 %16, label %17, label %58

17:                                               ; preds = %13
  %18 = load ptr, ptr @l_Lean_Linter_MissingDocs_lintDeclHead___closed__8, align 8, !tbaa !4
  %19 = tail call zeroext i8 @lean_name_eq(ptr noundef %0, ptr noundef %18) #5
  %20 = icmp eq i8 %19, 0
  br i1 %20, label %21, label %55

21:                                               ; preds = %17
  %22 = load ptr, ptr @l_Lean_Linter_MissingDocs_lintDeclHead___closed__10, align 8, !tbaa !4
  %23 = tail call zeroext i8 @lean_name_eq(ptr noundef %0, ptr noundef %22) #5
  %24 = icmp eq i8 %23, 0
  br i1 %24, label %25, label %52

25:                                               ; preds = %21
  %26 = load ptr, ptr @l_Lean_Linter_MissingDocs_lintDeclHead___closed__12, align 8, !tbaa !4
  %27 = tail call zeroext i8 @lean_name_eq(ptr noundef %0, ptr noundef %26) #5
  %28 = icmp eq i8 %27, 0
  br i1 %28, label %29, label %49

29:                                               ; preds = %25
  %30 = load ptr, ptr @l_Lean_Linter_MissingDocs_lintDeclHead___closed__14, align 8, !tbaa !4
  %31 = tail call zeroext i8 @lean_name_eq(ptr noundef %0, ptr noundef %30) #5
  %32 = icmp eq i8 %31, 0
  br i1 %32, label %33, label %46

33:                                               ; preds = %29
  %34 = ptrtoint ptr %2 to i64
  %35 = and i64 %34, 1
  %.not = icmp eq i64 %35, 0
  br i1 %.not, label %36, label %lean_dec.exit

36:                                               ; preds = %33
  %37 = load i32, ptr %2, align 4, !tbaa !8
  %38 = icmp sgt i32 %37, 1
  br i1 %38, label %39, label %41, !prof !11

39:                                               ; preds = %36
  %40 = add nsw i32 %37, -1
  store i32 %40, ptr %2, align 4, !tbaa !8
  br label %lean_dec.exit

41:                                               ; preds = %36
  %.not.i = icmp eq i32 %37, 0
  br i1 %.not.i, label %lean_dec.exit, label %42

42:                                               ; preds = %41
  tail call void @lean_dec_ref_cold(ptr noundef nonnull %2) #5
  br label %lean_dec.exit

lean_dec.exit:                                    ; preds = %42, %41, %39, %33
  %43 = tail call fastcc ptr @lean_alloc_ctor(i32 noundef 0, i32 noundef 2, i32 noundef 0)
  %44 = getelementptr inbounds nuw i8, ptr %43, i64 8
  store ptr inttoptr (i64 1 to ptr), ptr %44, align 8, !tbaa !4
  %45 = getelementptr inbounds nuw i8, ptr %43, i64 16
  store ptr %4, ptr %45, align 8, !tbaa !4
  br label %67

46:                                               ; preds = %29
  %47 = load ptr, ptr @l_Lean_Linter_MissingDocs_lintDeclHead___closed__15, align 8, !tbaa !4
  %48 = tail call ptr @l_Lean_Linter_MissingDocs_lintNamed(ptr noundef %1, ptr noundef %47, ptr noundef %2, ptr noundef %3, ptr noundef %4)
  br label %67

49:                                               ; preds = %25
  %50 = load ptr, ptr @l_Lean_Linter_MissingDocs_lintDeclHead___closed__16, align 8, !tbaa !4
  %51 = tail call ptr @l_Lean_Linter_MissingDocs_lintNamed(ptr noundef %1, ptr noundef %50, ptr noundef %2, ptr noundef %3, ptr noundef %4)
  br label %67

52:                                               ; preds = %21
  %53 = load ptr, ptr @l_Lean_Linter_MissingDocs_lintDeclHead___closed__16, align 8, !tbaa !4
  %54 = tail call ptr @l_Lean_Linter_MissingDocs_lintNamed(ptr noundef %1, ptr noundef %53, ptr noundef %2, ptr noundef %3, ptr noundef %4)
  br label %67

55:                                               ; preds = %17
  %56 = load ptr, ptr @l_Lean_Linter_MissingDocs_lintDeclHead___closed__17, align 8, !tbaa !4
  %57 = tail call ptr @l_Lean_Linter_MissingDocs_lintNamed(ptr noundef %1, ptr noundef %56, ptr noundef %2, ptr noundef %3, ptr noundef %4)
  br label %67

58:                                               ; preds = %13
  %59 = load ptr, ptr @l_Lean_Linter_MissingDocs_lintDeclHead___closed__18, align 8, !tbaa !4
  %60 = tail call ptr @l_Lean_Linter_MissingDocs_lintNamed(ptr noundef %1, ptr noundef %59, ptr noundef %2, ptr noundef %3, ptr noundef %4)
  br label %67

61:                                               ; preds = %9
  %62 = load ptr, ptr @l_Lean_Linter_MissingDocs_lintDeclHead___closed__19, align 8, !tbaa !4
  %63 = tail call ptr @l_Lean_Linter_MissingDocs_lintNamed(ptr noundef %1, ptr noundef %62, ptr noundef %2, ptr noundef %3, ptr noundef %4)
  br label %67

64:                                               ; preds = %5
  %65 = load ptr, ptr @l_Lean_Linter_MissingDocs_lintDeclHead___closed__20, align 8, !tbaa !4
  %66 = tail call ptr @l_Lean_Linter_MissingDocs_lintNamed(ptr noundef %1, ptr noundef %65, ptr noundef %2, ptr noundef %3, ptr noundef %4)
  br label %67

67:                                               ; preds = %61, %55, %49, %46, %lean_dec.exit, %52, %58, %64
  %.6 = phi ptr [ %66, %64 ], [ %63, %61 ], [ %60, %58 ], [ %57, %55 ], [ %54, %52 ], [ %51, %49 ], [ %43, %lean_dec.exit ], [ %48, %46 ]
  ret ptr %.6
}